; Function Attrs: mustprogress nofree norecurse nosync nounwind willreturn memory(none) uwtable
define noundef double @_ZN2mu9ParserInt3IteEddd(double noundef %0, double noundef %1, double noundef %2) #2 align 2 {
  %4 = fcmp oge double %0, 0.000000e+00
  %5 = select i1 %4, double 5.000000e-01, double -5.000000e-01
  %6 = fadd double %5, %0
  %7 = fptosi double %6 to i32
  %8 = icmp eq i32 %7, 1
  %. = select i1 %8, double %1, double %2
  %9 = fcmp oge double %., 0.000000e+00
  %10 = select i1 %9, double 5.000000e-01, double -5.000000e-01
  %11 = fadd double %10, %.
  %12 = fptosi double %11 to i32
  %13 = sitofp i32 %12 to double
  ret double %13
}